target datalayout = "e-m:e-p270:32:32-p271:32:32-p272:64:64-i64:64-i128:128-f80:128-n8:16:32:64-S128"
target triple = "x86_64-unknown-linux-gnu"

; Function Attrs: mustprogress uwtable
define hidden noundef ptr @_ZN5model15get_fresh_valueEP4sort(ptr noundef nonnull align 8 dereferenceable(160) %this, ptr noundef %s) unnamed_addr #4 align 2 {
entry:
  %this.addr = alloca ptr, align 8
  %s.addr = alloca ptr, align 8
  store ptr %this, ptr %this.addr, align 8
  store ptr %s, ptr %s.addr, align 8
  %this1 = load ptr, ptr %this.addr, align 8
  %0 = load ptr, ptr %s.addr, align 8
  %call = call noundef ptr @_ZN5model11get_factoryEP4sort(ptr noundef nonnull align 8 dereferenceable(160) %this1, ptr noundef %0)
  %1 = load ptr, ptr %s.addr, align 8
  %vtable = load ptr, ptr %call, align 8
  %vfn = getelementptr inbounds ptr, ptr %vtable, i64 4
  %2 = load ptr, ptr %vfn, align 8
  %call2 = call noundef ptr %2(ptr noundef nonnull align 8 dereferenceable(20) %call, ptr noundef %1)
  ret ptr %call2
}