; Function Attrs: mustprogress uwtable
define hidden noundef ptr @_ZN5model15get_fresh_valueEP4sort(ptr noundef nonnull align 8 dereferenceable(160) %this, ptr noundef %s) unnamed_addr #3 align 2 {
entry:
  %call = tail call noundef ptr @_ZN5model11get_factoryEP4sort(ptr noundef nonnull align 8 dereferenceable(160) %this, ptr noundef %s)
  %vtable = load ptr, ptr %call, align 8
  %vfn = getelementptr inbounds i8, ptr %vtable, i64 32
  %0 = load ptr, ptr %vfn, align 8
  %call2 = tail call noundef ptr %0(ptr noundef nonnull align 8 dereferenceable(20) %call, ptr noundef %s)
  ret ptr %call2
}